; Function Attrs: mustprogress uwtable
define noundef i64 @_ZN32pxrInternal_v0_24__pxrReserved__16HdDataSourceHashERKSt10shared_ptrINS_16HdDataSourceBaseEEff(ptr noundef nonnull align 8 dereferenceable(16) %0, float noundef %1, float noundef %2) local_unnamed_addr #0 {
  %4 = alloca %"class.pxrInternal_v0_24__pxrReserved__::Tf_HashState", align 8
  %5 = alloca %"struct.std::pair", align 8
  %6 = alloca %"struct.pxrInternal_v0_24__pxrReserved__::(anonymous namespace)::_Args", align 4
  store float %1, ptr %6, align 4
  %7 = getelementptr inbounds nuw i8, ptr %6, i64 4
  store float %2, ptr %7, align 4
  store ptr %0, ptr %5, align 8
  %8 = getelementptr inbounds nuw i8, ptr %5, i64 8
  store ptr %6, ptr %8, align 8
  call void @llvm.lifetime.start.p0(i64 16, ptr nonnull %4)
  store i64 0, ptr %4, align 8
  %9 = getelementptr inbounds nuw i8, ptr %4, i64 8
  store i8 0, ptr %9, align 8
  call fastcc void @_ZN32pxrInternal_v0_24__pxrReserved__11Tf_HashImplINS_12Tf_HashStateESt4pairIRKSt10shared_ptrINS_16HdDataSourceBaseEERKNS_12_GLOBAL__N_15_ArgsEEEEDTcmcl12TfHashAppendfp_clsr3stdE7forwardIT0_Efp0_EEcvv_EERT_OSD_i(ptr noundef nonnull align 8 dereferenceable(9) %4, ptr noundef nonnull readonly align 8 dereferenceable(16) %5)
  %10 = load i64, ptr %4, align 8
  %11 = mul i64 %10, -7046029254386353067
  %12 = call noundef i64 @llvm.bswap.i64(i64 %11)
  call void @llvm.lifetime.end.p0(i64 16, ptr nonnull %4)
  ret i64 %12
}